target datalayout = "e-m:e-p270:32:32-p271:32:32-p272:64:64-i64:64-i128:128-f80:128-n8:16:32:64-S128"
target triple = "x86_64-pc-linux-gnu"

%struct.json_dumper = type { ptr, ptr, i32, i32, i32, i32, [1100 x i8] }
%struct.sharkd_session_process_complete_pref_data = type { ptr, ptr }

@dumper = internal global %struct.json_dumper zeroinitializer, align 8
@.str.185 = private unnamed_addr constant [2 x i8] c"f\00", align 1
@.str.188 = private unnamed_addr constant [6 x i8] c"%s.%s\00", align 1
@.str.189 = private unnamed_addr constant [2 x i8] c"d\00", align 1

; Function Attrs: null_pointer_is_valid sspstrong uwtable
define internal void @sharkd_json_value_string(ptr noundef %0, ptr noundef %1) #0 {
  %3 = alloca ptr, align 8
  %4 = alloca ptr, align 8
  store ptr %0, ptr %3, align 8
  store ptr %1, ptr %4, align 8
  %5 = load ptr, ptr %3, align 8
  %6 = icmp ne ptr %5, null
  br i1 %6, label %7, label %9

7:                                                ; preds = %2
  %8 = load ptr, ptr %3, align 8
  call void @json_dumper_set_member_name(ptr noundef @dumper, ptr noundef %8)
  br label %9

9:                                                ; preds = %7, %2
  %10 = load ptr, ptr %4, align 8
  call void @json_dumper_value_string(ptr noundef @dumper, ptr noundef %10)
  ret void
}

; Function Attrs: null_pointer_is_valid sspstrong uwtable
define internal i32 @sharkd_session_process_complete_pref_option_cb(ptr noundef %0, ptr noundef %1) #0 {
  %3 = alloca i32, align 4
  %4 = alloca ptr, align 8
  %5 = alloca ptr, align 8
  %6 = alloca ptr, align 8
  %7 = alloca ptr, align 8
  %8 = alloca ptr, align 8
  %9 = alloca i32, align 4
  store ptr %0, ptr %4, align 8
  store ptr %1, ptr %5, align 8
  call void @llvm.lifetime.start.p0(i64 8, ptr %6) #21
  %10 = load ptr, ptr %5, align 8
  store ptr %10, ptr %6, align 8
  call void @llvm.lifetime.start.p0(i64 8, ptr %7) #21
  %11 = load ptr, ptr %4, align 8
  %12 = call ptr @prefs_get_name(ptr noundef %11)
  store ptr %12, ptr %7, align 8
  call void @llvm.lifetime.start.p0(i64 8, ptr %8) #21
  %13 = load ptr, ptr %4, align 8
  %14 = call ptr @prefs_get_title(ptr noundef %13)
  store ptr %14, ptr %8, align 8
  %15 = load ptr, ptr %6, align 8
  %16 = getelementptr inbounds nuw %struct.sharkd_session_process_complete_pref_data, ptr %15, i32 0, i32 1
  %17 = load ptr, ptr %16, align 8
  %18 = load ptr, ptr %7, align 8
  %19 = load ptr, ptr %6, align 8
  %20 = getelementptr inbounds nuw %struct.sharkd_session_process_complete_pref_data, ptr %19, i32 0, i32 1
  %21 = load ptr, ptr %20, align 8
  %22 = call i64 @strlen(ptr noundef %21) #22
  %23 = call i32 @strncmp(ptr noundef %17, ptr noundef %18, i64 noundef %22) #22
  %24 = icmp ne i32 %23, 0
  br i1 %24, label %25, label %26

25:                                               ; preds = %2
  store i32 0, ptr %3, align 4
  store i32 1, ptr %9, align 4
  br label %32

26:                                               ; preds = %2
  call void @json_dumper_begin_object(ptr noundef @dumper)
  %27 = load ptr, ptr %6, align 8
  %28 = getelementptr inbounds nuw %struct.sharkd_session_process_complete_pref_data, ptr %27, i32 0, i32 0
  %29 = load ptr, ptr %28, align 8
  %30 = load ptr, ptr %7, align 8
  call void (ptr, ptr, ...) @sharkd_json_value_stringf(ptr noundef @.str.185, ptr noundef @.str.188, ptr noundef %29, ptr noundef %30)
  %31 = load ptr, ptr %8, align 8
  call void @sharkd_json_value_string(ptr noundef @.str.189, ptr noundef %31)
  call void @json_dumper_end_object(ptr noundef @dumper)
  store i32 0, ptr %3, align 4
  store i32 1, ptr %9, align 4
  br label %32

32:                                               ; preds = %26, %25
  call void @llvm.lifetime.end.p0(i64 8, ptr %8) #21
  call void @llvm.lifetime.end.p0(i64 8, ptr %7) #21
  call void @llvm.lifetime.end.p0(i64 8, ptr %6) #21
  %33 = load i32, ptr %3, align 4
  ret i32 %33
}