; Function Attrs: null_pointer_is_valid sspstrong uwtable
define internal noundef i32 @sharkd_session_process_complete_pref_option_cb(ptr noundef %0, ptr noundef readonly captures(none) %1) #0 {
  %3 = tail call ptr @prefs_get_name(ptr noundef %0)
  %4 = tail call ptr @prefs_get_title(ptr noundef %0)
  %5 = getelementptr inbounds nuw i8, ptr %1, i64 8
  %6 = load ptr, ptr %5, align 8
  %7 = tail call i64 @strlen(ptr noundef %6) #18
  %8 = tail call i32 @strncmp(ptr noundef %6, ptr noundef %3, i64 noundef %7) #18
  %.not = icmp eq i32 %8, 0
  br i1 %.not, label %9, label %11

9:                                                ; preds = %2
  tail call void @json_dumper_begin_object(ptr noundef nonnull @dumper)
  %10 = load ptr, ptr %1, align 8
  tail call void (ptr, ptr, ...) @sharkd_json_value_stringf(ptr noundef nonnull @.str.185, ptr noundef nonnull @.str.188, ptr noundef %10, ptr noundef %3)
  tail call void @json_dumper_set_member_name(ptr noundef nonnull @dumper, ptr noundef nonnull @.str.189)
  tail call void @json_dumper_value_string(ptr noundef nonnull @dumper, ptr noundef %4)
  tail call void @json_dumper_end_object(ptr noundef nonnull @dumper)
  br label %11

11:                                               ; preds = %2, %9
  ret i32 0
}